target datalayout = "e-m:e-p270:32:32-p271:32:32-p272:64:64-i64:64-i128:128-f80:128-n8:16:32:64-S128"
target triple = "x86_64-pc-linux-gnu"

%class.GenDCmdArgument.base = type <{ ptr, ptr, ptr, ptr, ptr, ptr, i8, i8, i8 }>
%class.DCmdArgument.4 = type { %class.GenDCmdArgument.base, ptr }

@.str.18 = private unnamed_addr constant [5 x i8] c"%.*s\00", align 1

; Function Attrs: mustprogress nounwind uwtable
define linkonce_odr hidden void @_ZN12DCmdArgumentIPcE9set_valueES0_(ptr noundef nonnull align 8 dereferenceable(64) %0, ptr noundef %1) #1 comdat align 2 {
  %3 = alloca ptr, align 8
  %4 = alloca ptr, align 8
  store ptr %0, ptr %3, align 8
  store ptr %1, ptr %4, align 8
  %5 = load ptr, ptr %3, align 8
  %6 = load ptr, ptr %4, align 8
  %7 = getelementptr inbounds %class.DCmdArgument.4, ptr %5, i32 0, i32 1
  store ptr %6, ptr %7, align 8
  ret void
}

; Function Attrs: mustprogress nounwind uwtable
define hidden void @_ZN12DCmdArgumentIPcE13destroy_valueEv(ptr noundef nonnull align 8 dereferenceable(64) %0) #1 align 2 {
  %2 = alloca ptr, align 8
  store ptr %0, ptr %2, align 8
  %3 = load ptr, ptr %2, align 8
  %4 = getelementptr inbounds %class.DCmdArgument.4, ptr %3, i32 0, i32 1
  %5 = load ptr, ptr %4, align 8
  call void @_Z8FreeHeapPv(ptr noundef %5)
  call void @_ZN12DCmdArgumentIPcE9set_valueES0_(ptr noundef nonnull align 8 dereferenceable(64) %3, ptr noundef null)
  ret void
}

; Function Attrs: mustprogress nounwind uwtable
define hidden void @_ZN12DCmdArgumentIPcE11parse_valueEPKcmP10JavaThread(ptr noundef nonnull align 8 dereferenceable(64) %0, ptr noundef %1, i64 noundef %2, ptr noundef %3) unnamed_addr #1 align 2 {
  %5 = alloca ptr, align 8
  %6 = alloca ptr, align 8
  %7 = alloca i64, align 8
  %8 = alloca ptr, align 8
  %9 = alloca i32, align 4
  store ptr %0, ptr %5, align 8
  store ptr %1, ptr %6, align 8
  store i64 %2, ptr %7, align 8
  store ptr %3, ptr %8, align 8
  %10 = load ptr, ptr %5, align 8
  %11 = load ptr, ptr %6, align 8
  %12 = icmp eq ptr %11, null
  br i1 %12, label %13, label %14

13:                                               ; preds = %4
  call void @_ZN12DCmdArgumentIPcE13destroy_valueEv(ptr noundef nonnull align 8 dereferenceable(64) %10)
  br label %30

14:                                               ; preds = %4
  %15 = getelementptr inbounds %class.DCmdArgument.4, ptr %10, i32 0, i32 1
  %16 = load ptr, ptr %15, align 8
  %17 = load i64, ptr %7, align 8
  %18 = add i64 %17, 1
  %19 = mul i64 %18, 1
  %20 = call noundef ptr @_Z14ReallocateHeapPcm8MEMFLAGSN17AllocFailStrategy13AllocFailEnumE(ptr noundef %16, i64 noundef %19, i8 noundef zeroext 9, i32 noundef 0)
  %21 = getelementptr inbounds %class.DCmdArgument.4, ptr %10, i32 0, i32 1
  store ptr %20, ptr %21, align 8
  %22 = getelementptr inbounds %class.DCmdArgument.4, ptr %10, i32 0, i32 1
  %23 = load ptr, ptr %22, align 8
  %24 = load i64, ptr %7, align 8
  %25 = add i64 %24, 1
  %26 = load i64, ptr %7, align 8
  %27 = trunc i64 %26 to i32
  %28 = load ptr, ptr %6, align 8
  %29 = call noundef i32 (ptr, i64, ptr, ...) @_ZN2os8snprintfEPcmPKcz(ptr noundef %23, i64 noundef %25, ptr noundef @.str.18, i32 noundef %27, ptr noundef %28)
  store i32 %29, ptr %9, align 4
  br label %30

30:                                               ; preds = %14, %13
  ret void
}