; Function Attrs: mustprogress nounwind uwtable
define hidden void @_ZN12DCmdArgumentIPcE11parse_valueEPKcmP10JavaThread(ptr nocapture noundef nonnull align 8 dereferenceable(64) %0, ptr noundef %1, i64 noundef %2, ptr nocapture noundef readnone %3) unnamed_addr #0 align 2 {
  %5 = icmp eq ptr %1, null
  %6 = getelementptr inbounds i8, ptr %0, i64 56
  %7 = load ptr, ptr %6, align 8
  br i1 %5, label %8, label %9

8:                                                ; preds = %4
  tail call void @_Z8FreeHeapPv(ptr noundef %7) #15
  store ptr null, ptr %6, align 8
  br label %14

9:                                                ; preds = %4
  %10 = add i64 %2, 1
  %11 = tail call noundef ptr @_Z14ReallocateHeapPcm8MEMFLAGSN17AllocFailStrategy13AllocFailEnumE(ptr noundef %7, i64 noundef %10, i8 noundef zeroext 9, i32 noundef 0) #15
  store ptr %11, ptr %6, align 8
  %12 = trunc i64 %2 to i32
  %13 = tail call noundef i32 (ptr, i64, ptr, ...) @_ZN2os8snprintfEPcmPKcz(ptr noundef %11, i64 noundef %10, ptr noundef nonnull @.str.18, i32 noundef %12, ptr noundef nonnull %1) #15
  br label %14

14:                                               ; preds = %9, %8
  ret void
}